target datalayout = "e-m:e-p270:32:32-p271:32:32-p272:64:64-i64:64-i128:128-f80:128-n8:16:32:64-S128"
target triple = "x86_64-pc-linux-gnu"

; Function Attrs: mustprogress nounwind uwtable
define internal noundef i32 @_ZL15zeroPaddingSizei(i32 noundef %0) #3 {
  %2 = alloca i32, align 4
  store i32 %0, ptr %2, align 4, !tbaa !4
  %3 = load i32, ptr %2, align 4, !tbaa !4
  %4 = mul nsw i32 2, %3
  ret i32 %4
}

; Function Attrs: mustprogress uwtable
define void @_Z10cross_corriPfS_S_(i32 noundef %0, ptr noundef %1, ptr noundef %2, ptr noundef %3) #0 {
  %5 = alloca i32, align 4
  %6 = alloca ptr, align 8
  %7 = alloca ptr, align 8
  %8 = alloca ptr, align 8
  %9 = alloca ptr, align 8
  store i32 %0, ptr %5, align 4, !tbaa !4
  store ptr %1, ptr %6, align 8, !tbaa !8
  store ptr %2, ptr %7, align 8, !tbaa !8
  store ptr %3, ptr %8, align 8, !tbaa !8
  call void @llvm.lifetime.start.p0(i64 8, ptr %9) #7
  %10 = load i32, ptr %5, align 4, !tbaa !4
  %11 = call noundef i32 @_ZL15zeroPaddingSizei(i32 noundef %10)
  %12 = call noundef i32 @_Z15gmx_fft_init_1dPP7gmx_fftii(ptr noundef %9, i32 noundef %11, i32 noundef 1)
  %13 = load i32, ptr %5, align 4, !tbaa !4
  %14 = load ptr, ptr %6, align 8, !tbaa !8
  %15 = load ptr, ptr %7, align 8, !tbaa !8
  %16 = load ptr, ptr %8, align 8, !tbaa !8
  %17 = load ptr, ptr %9, align 8, !tbaa !11
  call void @_ZL14cross_corr_lowiPKfS0_PfP7gmx_fft(i32 noundef %13, ptr noundef %14, ptr noundef %15, ptr noundef %16, ptr noundef %17)
  %18 = load ptr, ptr %9, align 8, !tbaa !11
  call void @_Z15gmx_fft_destroyP7gmx_fft(ptr noundef %18)
  call void @_Z15gmx_fft_cleanupv()
  call void @llvm.lifetime.end.p0(i64 8, ptr %9) #7
  ret void
}