; Function Attrs: mustprogress uwtable
define void @_Z10cross_corriPfS_S_(i32 noundef %0, ptr noundef readonly captures(none) %1, ptr noundef readonly captures(none) %2, ptr noundef writeonly captures(none) %3) local_unnamed_addr #0 {
  %5 = alloca ptr, align 8
  call void @llvm.lifetime.start.p0(i64 8, ptr nonnull %5) #5
  %6 = shl nsw i32 %0, 1
  %7 = call noundef i32 @_Z15gmx_fft_init_1dPP7gmx_fftii(ptr noundef nonnull %5, i32 noundef %6, i32 noundef 1)
  %8 = load ptr, ptr %5, align 8, !tbaa !4
  call fastcc void @_ZL14cross_corr_lowiPKfS0_PfP7gmx_fft(i32 noundef %0, ptr noundef %1, ptr noundef %2, ptr noundef %3, ptr noundef %8)
  %9 = load ptr, ptr %5, align 8, !tbaa !4
  call void @_Z15gmx_fft_destroyP7gmx_fft(ptr noundef %9)
  call void @_Z15gmx_fft_cleanupv()
  call void @llvm.lifetime.end.p0(i64 8, ptr nonnull %5) #5
  ret void
}